(dp0
S'class_sl'
p1
(dp2
S'A'
p3
(I0
I4
tp4
sS'C'
p5
(I8
I12
tp6
sS'B'
p7
(I4
I8
tp8
sS'D'
p9
(I12
I16
tp10
ssS'class_hierarchy'
p11
(dp12
g3
(lp13
S'A_subcl'
p14
asg5
(lp15
S'C_subcl'
p16
asg7
(lp17
S'B_subcl'
p18
asg9
(lp19
S'D_subcl'
p20
assS'feats'
p21
(dp22
S'Bacteria.Firmicutes.Bacilli.Lactobacillales.Enterococcaceae'
p23
(lp24
F341.7809998693196
aF537.0827759068397
aF660.8797585388991
aF253.67500900716996
aF500.9948259579951
aF4868.244532132963
aF93.29717893772964
aF1644.1429515968082
aF2254.842716868082
aF963.4824778596075
aF11067.532112153192
aF428.9877055301282
aF312.74846365426066
aF1669.4578491699763
aF1763.106942939779
aF324.43487311033743
asS'Bacteria.Proteobacteria.Gammaproteobacteria.Pseudomonadales.Moraxellaceae.Acinetobacter'
p25
(lp26
F4135.616089636192
aF4162.416685212389
aF3756.51655281061
aF3213.254466084314
aF58667.33374854282
aF63513.62919552604
aF1539.254415445482
aF25803.791259783102
aF234.87622618580582
aF3600.4108191010873
aF435.7230416239951
aF6828.005674959355
aF1563.68014163837
aF5485.341227763838
aF36319.9235702832
aF1557.3137570306446
asS'Bacteria.Bacteroidetes.Bacteroidia.Bacteroidales'
p27
(lp28
F20575.562200137916
aF53628.01507991615
aF10086.94376453414
aF147302.58153382508
aF400250.51693923154
aF46842.723860159225
aF626708.3111277716
aF380160.7570690008
aF1385.7903648191516
aF209989.85044214828
aF228322.4426519696
aF181818.17592265917
aF373342.5147494632
aF340249.6181551625
aF365507.2996629947
aF361884.36019244755
asS'Bacteria.Actinobacteria.Coriobacteriia'
p29
(lp30
F27513.843129280704
aF14313.337247305424
aF21391.297610587306
aF6722.466877876342
aF300.6066587010946
aF877.4168906593687
aF326.50573312196366
aF91.34784706539185
aF1432.7630312659505
aF17241.386891515707
aF5228.7537471285505
aF13656.032966835088
aF1313.4813707149615
aF635.9771836570104
aF224.39211850658273
aF519.1155715523086
asS'Bacteria.Proteobacteria.Gammaproteobacteria.Enterobacteriales.Enterobacteriaceae.Escherichia'
p31
(lp32
F2700.110920535213
aF617.6473498872413
aF4417.396311349508
aF676.4817648165176
aF115931.85269502435
aF122725.0772047681
aF82326.58630483167
aF10915.227825694585
aF41127.42548449862
aF3448.2718819542556
aF23848.9421769893
aF7328.502139869361
aF30147.61509866266
aF204944.7575801576
aF119474.28614636563
aF12004.419881345297
asS'Bacteria.Firmicutes.Bacilli.Bacillales.Staphylococcaceae.Staphylococcus'
p33
(lp34
F51404.75058646128
aF56555.13706535405
aF47478.256694014184
aF22154.58560257413
aF2454.913699699366
aF339.64424237387226
aF1259.3858074056866
aF4338.70333753945
aF24192.59943383689
aF20943.205347551728
aF70994.92303786667
aF16194.183203409542
aF2189.1459806304247
aF11606.639362532887
aF6667.736650920154
aF10706.647431277665
asS'Bacteria.Deferribacteres.Deferribacteres'
p35
(lp36
F0.0
aF0.0
aF0.0
aF0.0
aF2104.1977952761745
aF0.0
aF15392.498296908034
aF0.0
aF70.46544664610391
aF354.98169276113265
aF203.34668914140423
aF500.47484799362695
aF0.0
aF39.74223752487615
aF3974.9981228927236
aF194.6806984419711
asS'Bacteria.Proteobacteria.Epsilonproteobacteria.Campylobacterales.Helicobacteraceae'
p37
(lp38
F3588.762922752447
aF20087.002260238332
aF9495.651338802836
aF14205.98139397029
aF29809.631485184098
aF679.2884847477445
aF68986.41958559315
aF81019.36531771377
aF399.29989967731854
aF307505.08302344923
aF11706.601842918592
aF71819.26476673715
aF98198.66522313251
aF72660.79369668647
aF94406.16403626664
aF35623.89824715194
asS'Bacteria.Verrucomicrobia.Verrucomicrobiae.Verrucomicrobiales'
p39
(lp40
F141841.55840435877
aF566947.7369654258
aF133739.13108252364
aF555513.2902053408
aF10671.341121362908
aF560470.9685693623
aF15905.598387905457
aF180717.93398377922
aF646200.8190186615
aF4310.346722878927
aF354713.1473753971
aF224680.93269298552
aF130472.84552137827
aF158.98922675130305
aF7757.650685365966
aF11615.091442087634
asS'Bacteria.Bacteroidetes.Bacteroidia.Bacteroidales.Rikenellaceae'
p41
(lp42
F2597.5748370280003
aF3974.432679258119
aF34.78314518625785
aF1775.7476742462864
aF15430.865191411094
aF113.20955173756009
aF2705.343043913439
aF137.00994104006327
aF0.0
aF0.0
aF0.0
aF0.0
aF2189.1459806304247
aF4690.354540703725
aF10931.236561467882
aF9279.087848915387
asS'Bacteria.Proteobacteria.Gammaproteobacteria.Pseudomonadales.Pseudomonadaceae'
p43
(lp44
F0.0
aF0.0
aF34.78314518625785
aF0.0
aF0.0
aF169.82212118693613
aF0.0
aF45.66209397467141
aF23.49278019930491
aF101.40763693493686
aF0.0
aF35.754379689938624
aF0.0
aF39.74223752487615
aF12501.997943988179
aF0.0
asS'Bacteria.Bacteroidetes.Bacteroidia.Bacteroidales.Prevotellaceae'
p45
(lp46
F4545.760423665043
aF1476.9884217156869
aF5113.038172639586
aF91155.09250036822
aF137625.25084217335
aF24284.625678376637
aF501469.2643346621
aF70880.5350442849
aF117.43811309290291
aF137271.8080833264
aF202585.3363955534
aF149537.05103799351
aF206404.81495845437
aF83154.46791865665
aF35262.05609392449
aF77412.2238715317
asS'Bacteria.Firmicutes.Clostridia.Clostridiales.Ruminococcaceae.Clostridium'
p47
(lp48
F38724.448980914574
aF10929.69705994108
aF24208.690285804038
aF3551.4953484925727
aF6162.31446429372
aF1132.157866020369
aF3638.223118197162
aF7261.597852471499
aF16582.49881743121
aF1774.8535003168097
aF22716.043729333167
aF1000.9713129036323
aF10382.782668574455
aF9698.707811561855
aF8719.345381514935
aF13107.511632970956
asS'Bacteria.Proteobacteria.Gammaproteobacteria.Pseudomonadales'
p49
(lp50
F4135.616089636192
aF4162.416685212389
aF3791.2996979968675
aF3213.254466084314
aF58667.33374854282
aF63683.45131671297
aF1539.254415445482
aF25849.453353757774
aF258.3690063851107
aF3701.818456036024
aF435.7230416239951
aF6863.760054649294
aF1563.68014163837
aF5525.083465288713
aF48821.92151427137
aF1557.3137570306446
asS'Bacteria.Bacteroidetes.Bacteroidia'
p51
(lp52
F20575.562200137916
aF53628.01507991615
aF10086.94376453414
aF147302.58153382508
aF400250.51693923154
aF46842.723860159225
aF626708.3111277716
aF380160.7570690008
aF1385.7903648191516
aF209989.85044214828
aF228322.4426519696
aF181818.17592265917
aF373342.5147494632
aF340249.6181551625
aF365507.2996629947
aF361884.36019244755
asS'Bacteria.Proteobacteria.Gammaproteobacteria.Enterobacteriales.Enterobacteriaceae.Morganella'
p53
(lp54
F0.0
aF0.0
aF0.0
aF0.0
aF3757.510010316451
aF119328.63478102938
aF419.80291205969326
aF40327.01062384215
aF23.49278019930491
aF0.0
aF0.0
aF35.754379689938624
aF1063.2825997915531
aF38198.57602346349
aF203301.8250779678
aF454.2220054049849
asS'Bacteria.Proteobacteria.Gammaproteobacteria.Pseudomonadales.Pseudomonadaceae.Pseudomonas'
p55
(lp56
F0.0
aF0.0
aF34.78314518625785
aF0.0
aF0.0
aF169.82212118693613
aF0.0
aF45.66209397467141
aF23.49278019930491
aF101.40763693493686
aF0.0
aF35.754379689938624
aF0.0
aF39.74223752487615
aF12501.997943988179
aF0.0
asS'Bacteria.Proteobacteria.Epsilonproteobacteria'
p57
(lp58
F3588.762922752447
aF20087.002260238332
aF9495.651338802836
aF14205.98139397029
aF29809.631485184098
aF679.2884847477445
aF68986.41958559315
aF81019.36531771377
aF399.29989967731854
aF307505.08302344923
aF11706.601842918592
aF71819.26476673715
aF98198.66522313251
aF72660.79369668647
aF94406.16403626664
aF35623.89824715194
asS'Bacteria.Firmicutes.Clostridia'
p59
(lp60
F91120.36981763614
aF63000.159144161145
aF62399.99451213293
aF69211.89897010072
aF251953.90056787955
aF46871.014557722716
aF141704.38239709457
aF222689.06390010213
aF132237.22364747667
aF132352.96057534902
aF170951.34609884582
aF92339.03617130515
aF269389.52650162403
aF261507.28883788365
aF95816.62641645456
aF449094.7874844469
asS'Bacteria.Firmicutes.Clostridia.Clostridiales.Lachnospiraceae.Coprococcus'
p61
(lp62
F8510.49493109866
aF6633.006084761354
aF2434.7780781678907
aF9174.696316939146
aF4308.614081996543
aF622.6759152983684
aF8116.05206051371
aF4247.355490474059
aF986.4904651418332
aF26115.626911355324
aF4938.271719379221
aF17981.62116799355
aF14135.60879084325
aF12441.368287117875
aF2276.0008491013655
aF23554.617757285607
asS'Bacteria.Proteobacteria.Deltaproteobacteria.Desulfovibrionales.Desulfovibrionaceae.Desulfovibrio'
p63
(lp64
F210472.35318456762
aF34695.742945471895
aF141739.1282207525
aF59064.762942637346
aF4559.111494975541
aF1188.754848308553
aF1819.1230234852778
aF3242.600150102896
aF58696.41476707166
aF21247.455740100966
aF10196.086028905203
aF39359.38960053819
aF5379.0248683215505
aF5684.0726920400175
aF2820.9578663242714
aF8565.324536547387
asS'Bacteria.Proteobacteria.Betaproteobacteria'
p65
(lp66
F1264.6057514342344
aF7062.683812656828
aF626.0966133526413
aF422.80675580934764
aF26352.703725752996
aF8406.218379495127
aF13573.39820219615
aF22058.813439494625
aF10780.968351769492
aF1673.418381637446
aF8801.750666369047
aF393.23332584018954
aF24831.108834755498
aF16098.262438960435
aF18849.169696192006
aF11485.304309792988
asS'Bacteria.Proteobacteria.Gammaproteobacteria.Enterobacteriales.Enterobacteriaceae.Proteus'
p67
(lp68
F0.0
aF0.0
aF0.0
aF0.0
aF1553.1181314118262
aF15651.972608245198
aF932.8800742837228
aF2694.560385942643
aF23.49278019930491
aF50.70381846746843
aF29.04511286930861
aF107.24152215343743
aF2564.413048699071
aF23054.289498314472
aF13527.802309285571
aF908.4440108099698
asS'Bacteria.Actinobacteria.Actinobacteria.Actinomycetales.Corynebacteriaceae.Corynebacterium'
p69
(lp70
F14252.515607502575
aF8647.07728238388
aF17530.431622217926
aF5242.67714933777
aF400.8007423295449
aF56.612569449376046
aF139.93430401989778
aF913.4074933057715
aF41879.03972345465
aF54665.3119265934
aF65475.67181346068
aF23522.6853432789
aF813.1149171846112
aF3617.1316376658838
aF1859.27972314952
aF1103.0917516256598
asS'Bacteria.Proteobacteria.Gammaproteobacteria'
p71
(lp72
F6835.727010171405
aF4780.06403509963
aF8208.696009346377
aF3889.7362309008317
aF179909.81458529545
aF321389.1359107556
aF85218.52370662056
aF79786.25218923716
aF41432.780051282345
aF7200.794156457749
aF24313.7103314826
aF14335.258096362031
aF35338.99088879166
aF271722.70656722423
aF385125.83504789043
aF14924.399654590896
asS'Bacteria.Bacteroidetes.Bacteroidia.Bacteroidales.Prevotellaceae.Prevotella'
p73
(lp74
F4545.760423665043
aF1476.9884217156869
aF5113.038172639586
aF91155.09250036822
aF137625.25084217335
aF24284.625678376637
aF501469.2643346621
aF70880.5350442849
aF117.43811309290291
aF137271.8080833264
aF202585.3363955534
aF149537.05103799351
aF206404.81495845437
aF83154.46791865665
aF35262.05609392449
aF77412.2238715317
asS'Bacteria.Actinobacteria.Actinobacteria'
p75
(lp76
F14252.515607502575
aF8647.07728238388
aF17530.431622217926
aF5242.67714933777
aF400.8007423295449
aF56.612569449376046
aF139.93430401989778
aF913.4074933057715
aF41879.03972345465
aF54665.3119265934
aF65475.67181346068
aF23522.6853432789
aF813.1149171846112
aF3617.1316376658838
aF1859.27972314952
aF1103.0917516256598
asS'Bacteria.Actinobacteria.Actinobacteria.Actinomycetales'
p77
(lp78
F14252.515607502575
aF8647.07728238388
aF17530.431622217926
aF5242.67714933777
aF400.8007423295449
aF56.612569449376046
aF139.93430401989778
aF913.4074933057715
aF41879.03972345465
aF54665.3119265934
aF65475.67181346068
aF23522.6853432789
aF813.1149171846112
aF3617.1316376658838
aF1859.27972314952
aF1103.0917516256598
asS'Bacteria.Bacteroidetes.Bacteroidia.Bacteroidales.Odoribacteraceae'
p79
(lp80
F8749.739847460767
aF34534.61379751109
aF2852.1758204029848
aF17250.12672444852
aF13727.468138464463
aF1301.9799872073052
aF15112.65261764163
aF21054.081758239514
aF0.0
aF9178.490412388857
aF0.0
aF1644.4420627406355
aF7005.254702690772
aF2623.4134863295926
aF10610.671662751558
aF27772.369980598836
asS'Bacteria.Actinobacteria.Coriobacteriia.Coriobacteriales.Coriobacteriaceae'
p81
(lp82
F27513.843129280704
aF14313.337247305424
aF21391.297610587306
aF6722.466877876342
aF300.6066587010946
aF877.4168906593687
aF326.50573312196366
aF91.34784706539185
aF1432.7630312659505
aF17241.386891515707
aF5228.7537471285505
aF13656.032966835088
aF1313.4813707149615
aF635.9771836570104
aF224.39211850658273
aF519.1155715523086
asS'Bacteria.Verrucomicrobia'
p83
(lp84
F141841.55840435877
aF566947.7369654258
aF133739.13108252364
aF555513.2902053408
aF10671.341121362908
aF560470.9685693623
aF15905.598387905457
aF180717.93398377922
aF646200.8190186615
aF4310.346722878927
aF354713.1473753971
aF224680.93269298552
aF130472.84552137827
aF158.98922675130305
aF7757.650685365966
aF11615.091442087634
asS'Bacteria.Firmicutes.Erysipelotrichi.Erysipelotrichales.Erysipelotrichaceae.Allobaculum'
p85
(lp86
F18832.448780515297
aF6391.326746782653
aF12173.911433274532
aF845.5909004225987
aF78507.0071055789
aF84.91885417406407
aF12174.078090770565
aF5526.130712925349
aF3029.949736023414
aF0.0
aF2817.7158379416187
aF607.7379870634428
aF19139.366591096154
aF4928.848519156579
aF10290.106764035232
aF648.902703846956
asS'Bacteria.Firmicutes.Clostridia.Clostridiales.Ruminococcaceae.Oscillospira'
p87
(lp88
F24471.933373412
aF17267.314090736796
aF12556.52603032337
aF30272.276335587958
aF138677.34973981144
aF42200.89843150137
aF80320.91478101771
aF184234.55401596223
aF72342.92207532487
aF71957.40263657657
aF85925.9340970097
aF29921.703312708127
aF161683.77430814898
aF172231.50250780614
aF58887.652712774245
aF328012.4564007682
asS'Bacteria.Firmicutes'
p89
(lp90
F573655.0717897944
aF289677.2112235413
aF655339.138085446
aF205394.88215474208
aF339679.3491548537
aF52729.90111941381
aF170437.07034201451
aF234335.0508432038
aF194480.326163342
aF361815.4407390259
aF264488.01128977357
aF416044.0364256282
aF323867.9150698283
aF281421.4346554379
aF118159.9468874648
aF524949.697598948
asS'Bacteria.Bacteroidetes.Bacteroidia.Bacteroidales.Odoribacteraceae.Butyricimonas'
p91
(lp92
F0.0
aF0.0
aF0.0
aF0.0
aF9919.848882425915
aF1103.851581295681
aF4944.268979458409
aF20962.73391117412
aF0.0
aF0.0
aF0.0
aF0.0
aF5566.673946514106
aF2583.6712488047165
aF6090.716522635927
aF18168.84725857311
asS'Bacteria.Firmicutes.Erysipelotrichi.Erysipelotrichales.Erysipelotrichaceae'
p93
(lp94
F18832.448780515297
aF6391.326746782653
aF12173.911433274532
aF845.5909004225987
aF78507.0071055789
aF84.91885417406407
aF12174.078090770565
aF5526.130712925349
aF3029.949736023414
aF0.0
aF2817.7158379416187
aF607.7379870634428
aF19139.366591096154
aF4928.848519156579
aF10290.106764035232
aF648.902703846956
asS'Bacteria.Firmicutes.Clostridia.Clostridiales.Lachnospiraceae.Dorea'
p95
(lp96
F375.9715846811698
aF3141.9464654231406
aF0.0
aF5834.593040753199
aF54609.217079525275
aF198.12840591162416
aF4011.388905174687
aF3425.27218511763
aF1691.1320376510614
aF405.6855112286011
aF2149.600994306911
aF607.7379870634428
aF35589.18965971506
aF34660.949137499156
aF5770.1516239196035
aF35494.111114857296
asS'Bacteria.Bacteroidetes.Bacteroidia.Bacteroidales.Bacteroidaceae.Bacteroides'
p97
(lp98
F2836.8375888542764
aF11439.92497785445
aF1182.6058938976876
aF29891.77512767525
aF223046.08905879874
aF19869.234940355105
aF82140.0148757296
aF247259.76569052465
aF469.7653463234225
aF53955.376022815566
aF8540.298301960904
aF24130.401713425967
aF140855.62818995272
aF215597.42102887906
aF256355.19994469982
aF233599.37058843634
asS'Bacteria.Proteobacteria.Gammaproteobacteria.Enterobacteriales'
p99
(lp100
F2700.110920535213
aF617.6473498872413
aF4417.396311349508
aF676.4817648165176
aF121242.48083675263
aF257705.68459404266
aF83679.26929117508
aF53936.79883547938
aF41174.411044897235
aF3498.9757004217236
aF23877.987289858607
aF7471.498041712736
aF33775.310747153286
aF266197.62310193555
aF336303.913533619
aF13367.08589756025
asS'Bacteria.Verrucomicrobia.Verrucomicrobiae.Verrucomicrobiales.Verrucomicrobiaceae'
p101
(lp102
F141841.55840435877
aF566947.7369654258
aF133739.13108252364
aF555513.2902053408
aF10671.341121362908
aF560470.9685693623
aF15905.598387905457
aF180717.93398377922
aF646200.8190186615
aF4310.346722878927
aF354713.1473753971
aF224680.93269298552
aF130472.84552137827
aF158.98922675130305
aF7757.650685365966
aF11615.091442087634
asS'Bacteria.Proteobacteria.Deltaproteobacteria.Desulfovibrionales'
p103
(lp104
F210472.35318456762
aF34856.8720934327
aF143582.61387318905
aF61305.57769819742
aF10521.037792012361
aF8547.734215957375
aF3311.7403138485915
aF20917.07181719945
aF61937.747949081575
aF35243.38602353229
aF36746.563592358885
aF53229.90561168016
aF11821.36342475112
aF13395.34420092929
aF4135.264019276667
aF37700.36053336118
asS'Bacteria.Proteobacteria.Epsilonproteobacteria.Campylobacterales.Helicobacteraceae.Helicobacter'
p105
(lp106
F3588.762922752447
aF20087.002260238332
aF9495.651338802836
aF14205.98139397029
aF29809.631485184098
aF679.2884847477445
aF68986.41958559315
aF81019.36531771377
aF399.29989967731854
aF307505.08302344923
aF11706.601842918592
aF71819.26476673715
aF98198.66522313251
aF72660.79369668647
aF94406.16403626664
aF35623.89824715194
asS'Bacteria.Proteobacteria.Betaproteobacteria.Burkholderiales'
p107
(lp108
F1264.6057514342344
aF7062.683812656828
aF626.0966133526413
aF422.80675580934764
aF26352.703725752996
aF8406.218379495127
aF13573.39820219615
aF22058.813439494625
aF10780.968351769492
aF1673.418381637446
aF8801.750666369047
aF393.23332584018954
aF24831.108834755498
aF16098.262438960435
aF18849.169696192006
aF11485.304309792988
asS'Bacteria.Proteobacteria.Deltaproteobacteria'
p109
(lp110
F210472.35318456762
aF34856.8720934327
aF143582.61387318905
aF61305.57769819742
aF10521.037792012361
aF8547.734215957375
aF3311.7403138485915
aF20917.07181719945
aF61937.747949081575
aF35243.38602353229
aF36746.563592358885
aF53229.90561168016
aF11821.36342475112
aF13395.34420092929
aF4135.264019276667
aF37700.36053336118
asS'Bacteria.Actinobacteria.Coriobacteriia.Coriobacteriales.Coriobacteriaceae.Adlercreutzia'
p111
(lp112
F27513.843129280704
aF14313.337247305424
aF21391.297610587306
aF6722.466877876342
aF300.6066587010946
aF877.4168906593687
aF326.50573312196366
aF91.34784706539185
aF1432.7630312659505
aF17241.386891515707
aF5228.7537471285505
aF13656.032966835088
aF1313.4813707149615
aF635.9771836570104
aF224.39211850658273
aF519.1155715523086
asS'Bacteria.Proteobacteria.Betaproteobacteria.Burkholderiales.Alcaligenaceae.Sutterella'
p113
(lp114
F1264.6057514342344
aF7062.683812656828
aF626.0966133526413
aF422.80675580934764
aF26352.703725752996
aF8406.218379495127
aF13573.39820219615
aF22058.813439494625
aF10780.968351769492
aF1673.418381637446
aF8801.750666369047
aF393.23332584018954
aF24831.108834755498
aF16098.262438960435
aF18849.169696192006
aF11485.304309792988
asS'Bacteria.Firmicutes.Clostridia.Clostridiales.Ruminococcaceae.Anaerotruncus'
p115
(lp116
F205.07216701442553
aF0.0
aF0.0
aF0.0
aF951.904814009637
aF792.4980364853046
aF326.50573312196366
aF14568.88145803372
aF23.49278019930491
aF0.0
aF0.0
aF0.0
aF1063.2825997915531
aF2186.18804360056
aF4808.456927770633
aF389.32843925766116
asS'Bacteria.Firmicutes.Erysipelotrichi.Erysipelotrichales'
p117
(lp118
F18832.448780515297
aF6391.326746782653
aF12173.911433274532
aF845.5909004225987
aF78507.0071055789
aF84.91885417406407
aF12174.078090770565
aF5526.130712925349
aF3029.949736023414
aF0.0
aF2817.7158379416187
aF607.7379870634428
aF19139.366591096154
aF4928.848519156579
aF10290.106764035232
aF648.902703846956
asS'Bacteria.Deferribacteres.Deferribacteres.Deferribacterales.Deferribacteraceae.Mucispirillum'
p119
(lp120
F0.0
aF0.0
aF0.0
aF0.0
aF2104.1977952761745
aF0.0
aF15392.498296908034
aF0.0
aF70.46544664610391
aF354.98169276113265
aF203.34668914140423
aF500.47484799362695
aF0.0
aF39.74223752487615
aF3974.9981228927236
aF194.6806984419711
asS'Bacteria.Firmicutes.Clostridia.Clostridiales.Ruminococcaceae.Ruminococcus'
p121
(lp122
F18832.448780515297
aF25028.195443298766
aF23200.000117837633
aF20378.837928327845
aF47244.500388242916
aF1924.6559025056736
aF45291.29779906933
aF8951.40289804298
aF40610.6874717284
aF32099.392015871697
aF55221.49555881685
aF42827.0023906364
aF46534.888474550724
aF30288.573050298037
aF15355.01892137377
aF48536.76213930721
asS'Bacteria.Bacteroidetes'
p123
(lp124
F20575.562200137916
aF53628.01507991615
aF10086.94376453414
aF147302.58153382508
aF400250.51693923154
aF46842.723860159225
aF626708.3111277716
aF380160.7570690008
aF1385.7903648191516
aF209989.85044214828
aF228322.4426519696
aF181818.17592265917
aF373342.5147494632
aF340249.6181551625
aF365507.2996629947
aF361884.36019244755
asS'Bacteria.Firmicutes.Bacilli.Lactobacillales'
p125
(lp126
F412297.5026051817
aF163730.58826724344
aF533286.9754460244
aF113182.80668164462
aF6763.52778169591
aF5434.323465143148
aF15299.224046743699
aF1781.1528926368715
aF35020.55334600499
aF208519.27481612517
aF19724.026315119452
aF306903.07906385005
aF33149.8759964777
aF3378.6579358648282
aF5385.4770560548595
aF64499.35997937644
asS'Bacteria.Proteobacteria.Gammaproteobacteria.Pseudomonadales.Moraxellaceae'
p127
(lp128
F4135.616089636192
aF4162.416685212389
aF3756.51655281061
aF3213.254466084314
aF58667.33374854282
aF63513.62919552604
aF1539.254415445482
aF25803.791259783102
aF234.87622618580582
aF3600.4108191010873
aF435.7230416239951
aF6828.005674959355
aF1563.68014163837
aF5485.341227763838
aF36319.9235702832
aF1557.3137570306446
asS'Bacteria.Firmicutes.Bacilli.Lactobacillales.Enterococcaceae.Enterococcus'
p129
(lp130
F341.7809998693196
aF537.0827759068397
aF660.8797585388991
aF253.67500900716996
aF500.9948259579951
aF4868.244532132963
aF93.29717893772964
aF1644.1429515968082
aF2254.842716868082
aF963.4824778596075
aF11067.532112153192
aF428.9877055301282
aF312.74846365426066
aF1669.4578491699763
aF1763.106942939779
aF324.43487311033743
asS'Bacteria.Actinobacteria.Coriobacteriia.Coriobacteriales'
p131
(lp132
F27513.843129280704
aF14313.337247305424
aF21391.297610587306
aF6722.466877876342
aF300.6066587010946
aF877.4168906593687
aF326.50573312196366
aF91.34784706539185
aF1432.7630312659505
aF17241.386891515707
aF5228.7537471285505
aF13656.032966835088
aF1313.4813707149615
aF635.9771836570104
aF224.39211850658273
aF519.1155715523086
asS'Bacteria.Proteobacteria.Gammaproteobacteria.Enterobacteriales.Enterobacteriaceae'
p133
(lp134
F2700.110920535213
aF617.6473498872413
aF4417.396311349508
aF676.4817648165176
aF121242.48083675263
aF257705.68459404266
aF83679.26929117508
aF53936.79883547938
aF41174.411044897235
aF3498.9757004217236
aF23877.987289858607
aF7471.498041712736
aF33775.310747153286
aF266197.62310193555
aF336303.913533619
aF13367.08589756025
asS'Bacteria.Firmicutes.Clostridia.Clostridiales'
p135
(lp136
F91120.36981763614
aF63000.159144161145
aF62399.99451213293
aF69211.89897010072
aF251953.90056787955
aF46871.014557722716
aF141704.38239709457
aF222689.06390010213
aF132237.22364747667
aF132352.96057534902
aF170951.34609884582
aF92339.03617130515
aF269389.52650162403
aF261507.28883788365
aF95816.62641645456
aF449094.7874844469
asS'Bacteria.Proteobacteria'
p137
(lp138
F222161.4488689257
aF66786.6222014275
aF161913.0578346909
aF79824.1020788779
aF246593.1875882449
aF339022.3769909559
aF171090.08180825846
aF203781.50276364502
aF114550.79625181072
aF351622.6815850767
aF81568.62643312913
aF139777.6618006195
aF170190.1283714308
aF373877.10690380045
aF502516.43279962573
aF99733.962744897
asS'Bacteria.Verrucomicrobia.Verrucomicrobiae.Verrucomicrobiales.Verrucomicrobiaceae.Akkermansia'
p139
(lp140
F141841.55840435877
aF566947.7369654258
aF133739.13108252364
aF555513.2902053408
aF10671.341121362908
aF560470.9685693623
aF15905.598387905457
aF180717.93398377922
aF646200.8190186615
aF4310.346722878927
aF354713.1473753971
aF224680.93269298552
aF130472.84552137827
aF158.98922675130305
aF7757.650685365966
aF11615.091442087634
asS'Bacteria.Deferribacteres.Deferribacteres.Deferribacterales'
p141
(lp142
F0.0
aF0.0
aF0.0
aF0.0
aF2104.1977952761745
aF0.0
aF15392.498296908034
aF0.0
aF70.46544664610391
aF354.98169276113265
aF203.34668914140423
aF500.47484799362695
aF0.0
aF39.74223752487615
aF3974.9981228927236
aF194.6806984419711
asS'Bacteria.Firmicutes.Clostridia.Clostridiales.Ruminococcaceae'
p143
(lp144
F82233.9033018563
aF53225.20659397664
aF59965.21643396503
aF54202.60961240838
aF193036.06940635774
aF46050.21023651273
aF129576.94143140617
aF215016.43622451043
aF129559.60114468378
aF105831.64815276508
aF163863.4733851597
aF73749.67701624817
aF219664.7280510657
aF214404.9714132666
aF87770.4739434336
aF390046.058612304
asS'Bacteria.Verrucomicrobia.Verrucomicrobiae'
p145
(lp146
F141841.55840435877
aF566947.7369654258
aF133739.13108252364
aF555513.2902053408
aF10671.341121362908
aF560470.9685693623
aF15905.598387905457
aF180717.93398377922
aF646200.8190186615
aF4310.346722878927
aF354713.1473753971
aF224680.93269298552
aF130472.84552137827
aF158.98922675130305
aF7757.650685365966
aF11615.091442087634
asS'Bacteria.Bacteroidetes.Bacteroidia.Bacteroidales.Bacteroidaceae'
p147
(lp148
F2836.8375888542764
aF11439.92497785445
aF1182.6058938976876
aF29891.77512767525
aF223046.08905879874
aF19869.234940355105
aF82140.0148757296
aF247259.76569052465
aF469.7653463234225
aF53955.376022815566
aF8540.298301960904
aF24130.401713425967
aF140855.62818995272
aF215597.42102887906
aF256355.19994469982
aF233599.37058843634
asS'Bacteria.Firmicutes.Bacilli.Lactobacillales.Lactobacillaceae.Lactobacillus'
p149
(lp150
F411955.72160531237
aF163193.5054913366
aF532626.0956874855
aF112929.13167263745
aF6262.532955737915
aF566.0789330101845
aF15205.926867805969
aF137.00994104006327
aF32765.710629136913
aF207555.79233826554
aF8656.494202966262
aF306474.0913583199
aF32837.12753282344
aF1709.2000866948522
aF3622.3701131150806
aF64174.925106266106
asS'Bacteria.Proteobacteria.Epsilonproteobacteria.Campylobacterales'
p151
(lp152
F3588.762922752447
aF20087.002260238332
aF9495.651338802836
aF14205.98139397029
aF29809.631485184098
aF679.2884847477445
aF68986.41958559315
aF81019.36531771377
aF399.29989967731854
aF307505.08302344923
aF11706.601842918592
aF71819.26476673715
aF98198.66522313251
aF72660.79369668647
aF94406.16403626664
aF35623.89824715194
asS'Bacteria.Firmicutes.Clostridia.Clostridiales.Lachnospiraceae'
p153
(lp154
F8886.46651577983
aF9774.952550184495
aF2434.7780781678907
aF15009.289357692345
aF58917.83116152182
aF820.8043212099926
aF12127.440965688396
aF7672.62767559169
aF2677.6225027928945
aF26521.312422583927
aF7087.872713686132
aF18589.359155056994
aF49724.798450558315
aF47102.31742461703
aF8046.152473020969
aF59048.7288721429
asS'Bacteria.Bacteroidetes.Bacteroidia.Bacteroidales.Porphyromonadaceae.Parabacteroides'
p155
(lp156
F1845.64950312983
aF2202.055203576797
aF904.3407324076247
aF7229.839507086778
aF10420.84370838391
aF1273.6737024826168
aF25281.036255824853
aF40829.36463491168
aF798.5869054028262
aF9584.175923617458
aF17196.80795445529
aF6506.281108499043
aF16887.67091773488
aF34183.96118059345
aF52348.13540015094
aF13821.307902965236
asS'Bacteria.Deferribacteres'
p157
(lp158
F0.0
aF0.0
aF0.0
aF0.0
aF2104.1977952761745
aF0.0
aF15392.498296908034
aF0.0
aF70.46544664610391
aF354.98169276113265
aF203.34668914140423
aF500.47484799362695
aF0.0
aF39.74223752487615
aF3974.9981228927236
aF194.6806984419711
asS'Bacteria.Firmicutes.Bacilli.Bacillales'
p159
(lp160
F51404.75058646128
aF56555.13706535405
aF47478.256694014184
aF22154.58560257413
aF2454.913699699366
aF339.64424237387226
aF1259.3858074056866
aF4338.70333753945
aF24192.59943383689
aF20943.205347551728
aF70994.92303786667
aF16194.183203409542
aF2189.1459806304247
aF11606.639362532887
aF6667.736650920154
aF10706.647431277665
asS'Bacteria.Bacteroidetes.Bacteroidia.Bacteroidales.Odoribacteraceae.Odoribacter'
p161
(lp162
F8749.739847460767
aF34534.61379751109
aF2852.1758204029848
aF17250.12672444852
aF3807.619256038548
aF198.12840591162416
aF10168.383638183223
aF91.34784706539185
aF0.0
aF9178.490412388857
aF0.0
aF1644.4420627406355
aF1438.5807561766658
aF39.74223752487615
aF4519.9551401156305
aF9603.522722025724
asS'Bacteria.Deferribacteres.Deferribacteres.Deferribacterales.Deferribacteraceae'
p163
(lp164
F0.0
aF0.0
aF0.0
aF0.0
aF2104.1977952761745
aF0.0
aF15392.498296908034
aF0.0
aF70.46544664610391
aF354.98169276113265
aF203.34668914140423
aF500.47484799362695
aF0.0
aF39.74223752487615
aF3974.9981228927236
aF194.6806984419711
asS'Bacteria.Bacteroidetes.Bacteroidia.Bacteroidales.Rikenellaceae.AF12'
p165
(lp166
F2597.5748370280003
aF3974.432679258119
aF34.78314518625785
aF1775.7476742462864
aF15430.865191411094
aF113.20955173756009
aF2705.343043913439
aF137.00994104006327
aF0.0
aF0.0
aF0.0
aF0.0
aF2189.1459806304247
aF4690.354540703725
aF10931.236561467882
aF9279.087848915387
asS'Bacteria.Actinobacteria.Actinobacteria.Actinomycetales.Corynebacteriaceae'
p167
(lp168
F14252.515607502575
aF8647.07728238388
aF17530.431622217926
aF5242.67714933777
aF400.8007423295449
aF56.612569449376046
aF139.93430401989778
aF913.4074933057715
aF41879.03972345465
aF54665.3119265934
aF65475.67181346068
aF23522.6853432789
aF813.1149171846112
aF3617.1316376658838
aF1859.27972314952
aF1103.0917516256598
asS'Bacteria.Proteobacteria.Deltaproteobacteria.Desulfovibrionales.Desulfovibrionaceae.Bilophila'
p169
(lp170
F0.0
aF161.1291479608029
aF1843.4856524365866
aF2240.8147555600817
aF5961.92629703682
aF7358.979367648822
aF1492.617290363314
aF17674.471667096554
aF3241.3331820099147
aF13995.930283431322
aF26550.47756345368
aF13870.516011141963
aF6442.3385564295695
aF7711.271508889274
aF1314.306152952395
aF29135.03599681379
asS'Bacteria.Firmicutes.Bacilli'
p171
(lp172
F463702.2531916429
aF220285.7253325975
aF580765.2321400386
aF135337.39228421875
aF9218.441481395277
aF5773.96770751702
aF16558.609854149385
aF6119.856230176322
aF59213.15277984188
aF229462.4801636769
aF90718.94935298612
aF323097.2622672596
aF35339.021977108125
aF14985.297298397716
aF12053.213706975013
aF75206.0074106541
asS'Bacteria.Bacteroidetes.Bacteroidia.Bacteroidales.Porphyromonadaceae'
p173
(lp174
F1845.64950312983
aF2202.055203576797
aF904.3407324076247
aF7229.839507086778
aF10420.84370838391
aF1273.6737024826168
aF25281.036255824853
aF40829.36463491168
aF798.5869054028262
aF9584.175923617458
aF17196.80795445529
aF6506.281108499043
aF16887.67091773488
aF34183.96118059345
aF52348.13540015094
aF13821.307902965236
asS'Bacteria.Firmicutes.Erysipelotrichi'
p175
(lp176
F18832.448780515297
aF6391.326746782653
aF12173.911433274532
aF845.5909004225987
aF78507.0071055789
aF84.91885417406407
aF12174.078090770565
aF5526.130712925349
aF3029.949736023414
aF0.0
aF2817.7158379416187
aF607.7379870634428
aF19139.366591096154
aF4928.848519156579
aF10290.106764035232
aF648.902703846956
asS'Bacteria.Actinobacteria'
p177
(lp178
F41766.35873678328
aF22960.414529689308
aF38921.72923280523
aF11965.144027214112
aF701.4074010306394
aF934.0294601087447
aF466.4400371418614
aF1004.7553403711632
aF43311.8027547206
aF71906.6988181091
aF70704.42556058922
aF37178.71831011399
aF2126.5962878995724
aF4253.108821322894
aF2083.6718416561025
aF1622.2073231779682
asS'Bacteria.Proteobacteria.Betaproteobacteria.Burkholderiales.Alcaligenaceae'
p179
(lp180
F1264.6057514342344
aF7062.683812656828
aF626.0966133526413
aF422.80675580934764
aF26352.703725752996
aF8406.218379495127
aF13573.39820219615
aF22058.813439494625
aF10780.968351769492
aF1673.418381637446
aF8801.750666369047
aF393.23332584018954
aF24831.108834755498
aF16098.262438960435
aF18849.169696192006
aF11485.304309792988
asS'Bacteria.Firmicutes.Bacilli.Bacillales.Staphylococcaceae'
p181
(lp182
F51404.75058646128
aF56555.13706535405
aF47478.256694014184
aF22154.58560257413
aF2454.913699699366
aF339.64424237387226
aF1259.3858074056866
aF4338.70333753945
aF24192.59943383689
aF20943.205347551728
aF70994.92303786667
aF16194.183203409542
aF2189.1459806304247
aF11606.639362532887
aF6667.736650920154
aF10706.647431277665
asS'Bacteria'
p183
(lp184
F1000000.0
aF1000000.0
aF1000000.0
aF1000000.0
aF1000000.0
aF1000000.0
aF1000000.0
aF1000000.0
aF1000000.0
aF1000000.0
aF1000000.0
aF1000000.0
aF1000000.0
aF1000000.0
aF1000000.0
aF1000000.0
asS'Bacteria.Firmicutes.Bacilli.Lactobacillales.Lactobacillaceae'
p185
(lp186
F411955.72160531237
aF163193.5054913366
aF532626.0956874855
aF112929.13167263745
aF6262.532955737915
aF566.0789330101845
aF15205.926867805969
aF137.00994104006327
aF32765.710629136913
aF207555.79233826554
aF8656.494202966262
aF306474.0913583199
aF32837.12753282344
aF1709.2000866948522
aF3622.3701131150806
aF64174.925106266106
asS'Bacteria.Proteobacteria.Deltaproteobacteria.Desulfovibrionales.Desulfovibrionaceae'
p187
(lp188
F210472.35318456762
aF34856.8720934327
aF143582.61387318905
aF61305.57769819742
aF10521.037792012361
aF8547.734215957375
aF3311.7403138485915
aF20917.07181719945
aF61937.747949081575
aF35243.38602353229
aF36746.563592358885
aF53229.90561168016
aF11821.36342475112
aF13395.34420092929
aF4135.264019276667
aF37700.36053336118
assS'subclass_sl'
p189
(dp190
g16
(I8
I12
tp191
sg14
(I0
I4
tp192
sg20
(I12
I16
tp193
sg18
(I4
I8
tp194
ssS'norm'
p195
F1000000.0
sS'cls'
p196
(dp197
S'class'
p198
(g3
g3
g3
g3
g7
g7
g7
g7
g5
g5
g5
g5
g9
g9
g9
g9
tp199
sS'subclass'
p200
(lp201
S'A_subcl'
p202
aS'A_subcl'
p203
aS'A_subcl'
p204
ag14
aS'B_subcl'
p205
aS'B_subcl'
p206
aS'B_subcl'
p207
ag18
aS'C_subcl'
p208
aS'C_subcl'
p209
aS'C_subcl'
p210
ag16
aS'D_subcl'
p211
aS'D_subcl'
p212
aS'D_subcl'
p213
ag20
asS'subject'
p214
(S'912A'
p215
S'913A'
p216
S'914A'
p217
S'916A'
p218
S'9211A'
p219
S'927A'
p220
S'928A'
p221
S'929A'
p222
S'934A'
p223
S'935A'
p224
S'936A'
p225
S'937A'
p226
S'9410A'
p227
S'9411A'
p228
S'947A'
p229
S'949A'
p230
tp231
ss.