(dp0
S'class_sl'
p1
(dp2
S'A'
p3
(I0
I4
tp4
sS'C'
p5
(I8
I12
tp6
sS'B'
p7
(I4
I8
tp8
sS'D'
p9
(I12
I16
tp10
ssS'class_hierarchy'
p11
(dp12
g3
(lp13
S'A_subcl'
p14
asg5
(lp15
S'C_subcl'
p16
asg7
(lp17
S'B_subcl'
p18
asg9
(lp19
S'D_subcl'
p20
assS'feats'
p21
(dp22
S'Bacteria.Verrucomicrobia.Verrucomicrobiae'
p23
(lp24
F597.2176001199473
aF723.4792916423692
aF540318.130955015
aF115781.282859107
aF140355.75772465536
aF2269.3426066065945
aF484896.09990823927
aF219022.54872526947
aF14343.788011171775
aF51997.96538177351
aF33089.188011990205
aF500316.3642703622
aF2079.130243756578
aF1744.2595067241043
aF512745.8654400503
aF663149.719810563
asS'Bacteria.Bacteroidetes.Bacteroidia.Bacteroidales'
p25
(lp26
F24059.377936410354
aF165453.29499287726
aF65087.985480673044
aF225669.16444311885
aF394743.11013887235
aF55890.52968330134
aF366778.5382343306
aF243329.70709658586
aF388327.52294523886
aF169106.4079503971
aF348432.26499859564
aF88381.83226559505
aF204504.7377330098
aF152661.93199700266
aF233457.27847857337
aF105103.49802862204
asS'Bacteria.Proteobacteria.Betaproteobacteria'
p27
(lp28
F11517.786616887819
aF10400.176679895538
aF7253.6775145778565
aF25333.54453843154
aF14571.579064685156
aF36244.556705890645
aF5641.656844564871
aF10992.4071527149
aF8304.304368470423
aF3673.7828776850347
aF1092.2649551287648
aF9095.226051743331
aF4504.772529198061
aF23130.60858208766
aF2464.044580610512
aF1146.0968749073083
asS'Bacteria.Proteobacteria.Epsilonproteobacteria.Campylobacterales.Helicobacteraceae'
p29
(lp30
F42.6521951503846
aF33958.852647121894
aF9498.094266439928
aF149668.4896090307
aF8457.082382412842
aF146599.24510802576
aF30064.982743087057
aF11611.695607338783
aF19221.825864235456
aF9608.308218832828
aF17540.480761498682
aF5378.0377907173615
aF981.8034493229474
aF16153.493605394984
aF3584.0788592929766
aF471.9202231848107
asS'Bacteria.Verrucomicrobia.Verrucomicrobiae.Verrucomicrobiales'
p31
(lp32
F597.2176001199473
aF723.4792916423692
aF540318.130955015
aF115781.282859107
aF140355.75772465536
aF2269.3426066065945
aF484896.09990823927
aF219022.54872526947
aF14343.788011171775
aF51997.96538177351
aF33089.188011990205
aF500316.3642703622
aF2079.130243756578
aF1744.2595067241043
aF512745.8654400503
aF663149.719810563
asS'Bacteria.Bacteroidetes.Bacteroidia.Bacteroidales.Rikenellaceae'
p33
(lp34
F0.0
aF0.0
aF7513.899504350929
aF7121.226697676389
aF0.0
aF0.0
aF35.69987294506757
aF2219.1293234492423
aF0.0
aF56.51717295824075
aF111667.95937995274
aF988.6069000268393
aF0.0
aF0.0
aF1120.012255474672
aF370.80059146831127
asS'Bacteria.Bacteroidetes.Bacteroidia.Bacteroidales.Prevotellaceae'
p35
(lp36
F16295.527417847397
aF148858.2459470257
aF4196.073314882869
aF14283.383657358392
aF350035.74332750594
aF38902.93859359044
aF13497.100682113469
aF54394.391763310276
aF339256.6752690221
aF155372.1794702133
aF88023.64316562067
aF56785.82880027524
aF187005.47367239202
aF40800.859621563985
aF164150.35367289625
aF38596.372999647356
asS'Bacteria.Firmicutes.Clostridia.Clostridiales.Ruminococcaceae.Clostridium'
p37
(lp38
F5972.176001199474
aF6601.864152334106
aF4521.354982237838
aF4051.7249694135944
aF4129.276287483667
aF19645.972977410696
aF26922.8016183368
aF15121.021572301444
aF15853.658921847114
aF20120.946750130635
aF16705.213685058738
aF8185.705381637016
aF9875.825162608387
aF6142.863760539622
aF6003.30621204658
aF26124.19076830459
asS'Bacteria.Bacteroidetes.Bacteroidia'
p39
(lp40
F24059.377936410354
aF165453.29499287726
aF65087.985480673044
aF225669.16444311885
aF394743.11013887235
aF55890.52968330134
aF366778.5382343306
aF243329.70709658586
aF388327.52294523886
aF169106.4079503971
aF348432.26499859564
aF88381.83226559505
aF204504.7377330098
aF152661.93199700266
aF233457.27847857337
aF105103.49802862204
asS'Bacteria.Firmicutes.Bacilli.Turicibacterales.Turicibacteraceae'
p41
(lp42
F3967.2405080840676
aF8048.845858838341
aF552.9654580598415
aF532.0521872794022
aF952.915887855186
aF18089.879692762388
aF107.11756748927263
aF7792.7501371581775
aF5400.7042541323
aF4408.533898708728
aF26085.844003278424
aF25822.51517431963
aF11088.64630532913
aF7280.451073549693
aF806.4237997230624
aF3977.6182140161727
asS'Bacteria.Firmicutes.Clostridia'
p43
(lp44
F59508.56418725373
aF126249.1712349092
aF48856.65767920141
aF137636.08487740994
aF217184.15209740828
aF163651.66543796475
aF98014.71014251877
aF329204.7436358408
aF173635.29832522452
aF248120.7206814388
aF246530.44873536332
aF139591.9173756917
aF189142.3945855275
aF170256.3105373666
aF193136.48491016048
aF165307.08166305418
asS'Bacteria.Firmicutes.Clostridia.Clostridiales.Lachnospiraceae.Coprococcus'
p45
(lp46
F13480.06991485284
aF38118.927943724004
aF9400.513110344338
aF11991.495079011893
aF131342.81906927834
aF30668.475969578583
aF7462.691389190645
aF94545.07490398927
aF48664.351701672735
aF109026.18133736296
aF56861.98718519917
aF46899.72109864647
aF80970.26619316015
aF25557.41278163818
aF28448.544735059266
aF59394.59225049078
asS'Bacteria.Proteobacteria.Deltaproteobacteria.Desulfovibrionales.Desulfovibrionaceae.Desulfovibrio'
p47
(lp48
F55285.388791263715
aF18494.228432851778
aF103405.66093434223
aF96750.42160642994
aF21083.135361848486
aF53232.1797154638
aF4284.792442841254
aF68896.12488098785
aF25493.62164047404
aF90092.12299192193
aF143022.3717596246
aF141252.7669053831
aF30089.510874620748
aF231078.4298486413
aF28941.35805582293
aF40045.84593480885
asS'Bacteria.Bacteroidetes.Bacteroidia.Bacteroidales.Prevotellaceae.Prevotella'
p49
(lp50
F16295.527417847397
aF148858.2459470257
aF4196.073314882869
aF14283.383657358392
aF350035.74332750594
aF38902.93859359044
aF13497.100682113469
aF54394.391763310276
aF339256.6752690221
aF155372.1794702133
aF88023.64316562067
aF56785.82880027524
aF187005.47367239202
aF40800.859621563985
aF164150.35367289625
aF38596.372999647356
asS'Bacteria.Verrucomicrobia'
p51
(lp52
F597.2176001199473
aF723.4792916423692
aF540318.130955015
aF115781.282859107
aF140355.75772465536
aF2269.3426066065945
aF484896.09990823927
aF219022.54872526947
aF14343.788011171775
aF51997.96538177351
aF33089.188011990205
aF500316.3642703622
aF2079.130243756578
aF1744.2595067241043
aF512745.8654400503
aF663149.719810563
asS'Bacteria.Bacteroidetes.Bacteroidia.Bacteroidales.Rikenellaceae.AF12'
p53
(lp54
F0.0
aF0.0
aF7513.899504350929
aF7121.226697676389
aF0.0
aF0.0
aF35.69987294506757
aF2219.1293234492423
aF0.0
aF56.51717295824075
aF111667.95937995274
aF988.6069000268393
aF0.0
aF0.0
aF1120.012255474672
aF370.80059146831127
asS'Bacteria.Bacteroidetes.Bacteroidia.Bacteroidales.Odoribacteraceae'
p55
(lp56
F3370.0229079641203
aF2080.0260866913086
aF2472.100542566945
aF102029.951389028
aF913.2021583994431
aF2852.869608384148
aF1249.7288855802738
aF1341.7916516850776
aF9175.367171064587
aF2091.2187171546007
aF8995.117519718939
aF4824.414830593502
aF750.7857559251529
aF38601.55749465623
aF3046.448310672407
aF303.3760602541863
asS'Bacteria.Firmicutes.Clostridia.Clostridiales.Lachnospiraceae.Ruminococcus'
p57
(lp58
F9811.459923832386
aF23377.80614431576
aF13043.620967167368
aF70762.05470409895
aF31247.519712526195
aF43571.28228725986
aF19281.57496711268
aF50833.47078817595
aF72648.07371195933
aF60758.488233666154
aF41249.0384552692
aF20800.375093584724
aF27721.63026173461
aF51114.82556327636
aF23968.451666744997
aF31551.26475237757
asS'Bacteria.Firmicutes.Clostridia.Clostridiales.Ruminococcaceae.Oscillospira'
p59
(lp60
F11261.83001197823
aF29617.907527609183
aF20037.07649197215
aF46124.26279157247
aF47288.17662849157
aF64708.551228953
aF43240.73072273271
aF158074.0084561428
aF32984.905340344456
aF51941.448208815265
aF83654.58334510561
aF54887.701230142084
aF69881.61988783101
aF81525.8467440156
aF129564.09508863527
aF45371.80028716533
asS'Bacteria.Firmicutes'
p61
(lp62
F908497.5768601678
aF770969.9679556112
aF274436.4508489518
aF386797.09694388206
aF420789.3353275257
aF705764.1461807119
aF108333.92982693692
aF446147.51653710316
aF544308.9371704095
aF675521.4125793896
aF456823.4295131621
aF255575.77271619882
aF757840.0451700919
aF575231.2764601493
aF218807.37458564987
aF190082.91912791377
asS'Bacteria.Firmicutes.Bacilli.Turicibacterales.Turicibacteraceae.Turicibacter'
p63
(lp64
F3967.2405080840676
aF8048.845858838341
aF552.9654580598415
aF532.0521872794022
aF952.915887855186
aF18089.879692762388
aF107.11756748927263
aF7792.7501371581775
aF5400.7042541323
aF4408.533898708728
aF26085.844003278424
aF25822.51517431963
aF11088.64630532913
aF7280.451073549693
aF806.4237997230624
aF3977.6182140161727
asS'Bacteria.Firmicutes.Clostridia.Clostridiales.Lachnospiraceae.Dorea'
p65
(lp66
F3370.0229079641203
aF6420.971206204016
aF1789.0324498978196
aF654.8223638994596
aF3176.3603996284814
aF2852.869608384148
aF999.793877656661
aF10424.738430356674
aF3135.883528363232
aF6273.656151463802
aF15998.46152843072
aF2609.942340778249
aF462.03538679558886
aF4550.272302244026
aF4928.089161221024
aF2089.9373212769297
asS'Bacteria.Bacteroidetes.Bacteroidia.Bacteroidales.Bacteroidaceae.Bacteroides'
p67
(lp68
F2175.5877077242258
aF7144.473621065883
aF49897.545638293705
aF86559.71378988754
aF11554.03474304644
aF4798.034093987907
aF344818.9702340238
aF178717.03110988752
aF25783.97590800543
aF6895.372826571014
aF132806.47436496496
aF21551.72330384999
aF5659.831999363461
aF44213.544610797944
aF54164.251638405534
aF64585.7147055237
asS'Bacteria.Firmicutes.Bacilli.Turicibacterales'
p69
(lp70
F3967.2405080840676
aF8048.845858838341
aF552.9654580598415
aF532.0521872794022
aF952.915887855186
aF18089.879692762388
aF107.11756748927263
aF7792.7501371581775
aF5400.7042541323
aF4408.533898708728
aF26085.844003278424
aF25822.51517431963
aF11088.64630532913
aF7280.451073549693
aF806.4237997230624
aF3977.6182140161727
asS'Bacteria.Proteobacteria.Deltaproteobacteria.Desulfovibrionales'
p71
(lp72
F55285.388791263715
aF18494.228432851778
aF103405.66093434223
aF96750.42160642994
aF21083.135361848486
aF53232.1797154638
aF4284.792442841254
aF68896.12488098785
aF25493.62164047404
aF90092.12299192193
aF143022.3717596246
aF141252.7669053831
aF30089.510874620748
aF231078.4298486413
aF28941.35805582293
aF40045.84593480885
asS'Bacteria.Proteobacteria.Epsilonproteobacteria.Campylobacterales.Helicobacteraceae.Helicobacter'
p73
(lp74
F0.0
aF0.0
aF9498.094266439928
aF149668.4896090307
aF0.0
aF0.0
aF30064.982743087057
aF11611.695607338783
aF0.0
aF0.0
aF17540.480761498682
aF5378.0377907173615
aF57.76167255534159
aF0.0
aF3584.0788592929766
aF471.9202231848107
asS'Bacteria.Proteobacteria.Betaproteobacteria.Burkholderiales'
p75
(lp76
F11517.786616887819
aF10400.176679895538
aF7253.6775145778565
aF25333.54453843154
aF14571.579064685156
aF36244.556705890645
aF5641.656844564871
aF10992.4071527149
aF8304.304368470423
aF3673.7828776850347
aF1092.2649551287648
aF9095.226051743331
aF4504.772529198061
aF23130.60858208766
aF2464.044580610512
aF1146.0968749073083
asS'Bacteria.Proteobacteria.Deltaproteobacteria'
p77
(lp78
F55285.388791263715
aF18494.228432851778
aF103405.66093434223
aF96750.42160642994
aF21083.135361848486
aF53232.1797154638
aF4284.792442841254
aF68896.12488098785
aF25493.62164047404
aF90092.12299192193
aF143022.3717596246
aF141252.7669053831
aF30089.510874620748
aF231078.4298486413
aF28941.35805582293
aF40045.84593480885
asS'Bacteria.Proteobacteria.Betaproteobacteria.Burkholderiales.Alcaligenaceae.Sutterella'
p79
(lp80
F11517.786616887819
aF10400.176679895538
aF7253.6775145778565
aF25333.54453843154
aF14571.579064685156
aF36244.556705890645
aF5641.656844564871
aF10992.4071527149
aF8304.304368470423
aF3673.7828776850347
aF1092.2649551287648
aF9095.226051743331
aF4504.772529198061
aF23130.60858208766
aF2464.044580610512
aF1146.0968749073083
asS'Bacteria.Verrucomicrobia.Verrucomicrobiae.Verrucomicrobiales.Verrucomicrobiaceae'
p81
(lp82
F597.2176001199473
aF723.4792916423692
aF540318.130955015
aF115781.282859107
aF140355.75772465536
aF2269.3426066065945
aF484896.09990823927
aF219022.54872526947
aF14343.788011171775
aF51997.96538177351
aF33089.188011990205
aF500316.3642703622
aF2079.130243756578
aF1744.2595067241043
aF512745.8654400503
aF663149.719810563
asS'Bacteria.Proteobacteria.Epsilonproteobacteria'
p83
(lp84
F42.6521951503846
aF33958.852647121894
aF9498.094266439928
aF149668.4896090307
aF8457.082382412842
aF146599.24510802576
aF30064.982743087057
aF11611.695607338783
aF19221.825864235456
aF9608.308218832828
aF17540.480761498682
aF5378.0377907173615
aF981.8034493229474
aF16153.493605394984
aF3584.0788592929766
aF471.9202231848107
asS'Bacteria.Firmicutes.Clostridia.Clostridiales'
p85
(lp86
F59508.56418725373
aF126249.1712349092
aF48856.65767920141
aF137636.08487740994
aF217184.15209740828
aF163651.66543796475
aF98014.71014251877
aF329204.7436358408
aF173635.29832522452
aF248120.7206814388
aF246530.44873536332
aF139591.9173756917
aF189142.3945855275
aF170256.3105373666
aF193136.48491016048
aF165307.08166305418
asS'Bacteria.Bacteroidetes'
p87
(lp88
F24059.377936410354
aF165453.29499287726
aF65087.985480673044
aF225669.16444311885
aF394743.11013887235
aF55890.52968330134
aF366778.5382343306
aF243329.70709658586
aF388327.52294523886
aF169106.4079503971
aF348432.26499859564
aF88381.83226559505
aF204504.7377330098
aF152661.93199700266
aF233457.27847857337
aF105103.49802862204
asS'Bacteria.Firmicutes.Bacilli.Lactobacillales'
p89
(lp90
F76785.2658295891
aF30974.454322658126
aF32560.25347959337
aF32823.12298476166
aF23108.06948609288
aF115087.86133603266
aF964.0760560575235
aF47324.14482321329
aF114692.2045163558
aF133386.08269476105
aF36301.70943700302
aF50379.631319230684
aF66474.14515624302
aF21158.808527822664
aF4793.6815240658825
aF14258.74349236551
asS'Bacteria.Bacteroidetes.Bacteroidia.Bacteroidales.Paraprevotellaceae.Paraprevotella'
p91
(lp92
F469.23929766515283
aF4793.119676789188
aF260.22198977307346
aF1145.9442891732492
aF15524.494952540344
aF2788.0403681560306
aF2606.59328730389
aF619.288454623882
aF2380.962432781623
aF2373.8323545123685
aF1863.2585911952226
aF3321.7377607431586
aF5775.326347650573
aF0.0
aF448.0181161145441
aF67.42453121412493
asS'Bacteria.Bacteroidetes.Bacteroidia.Bacteroidales.Paraprevotellaceae'
p93
(lp94
F469.23929766515283
aF4793.119676789188
aF260.22198977307346
aF1145.9442891732492
aF15524.494952540344
aF2788.0403681560306
aF2606.59328730389
aF619.288454623882
aF2380.962432781623
aF2373.8323545123685
aF1863.2585911952226
aF3321.7377607431586
aF5775.326347650573
aF0.0
aF448.0181161145441
aF67.42453121412493
asS'Bacteria.Proteobacteria'
p95
(lp96
F66845.82760330192
aF62853.25775986921
aF120157.43271536002
aF271752.4557538922
aF44111.79680894649
aF236075.9815293802
aF39991.432030493175
aF91500.22764104152
aF53019.75187317992
aF103374.2140884398
aF161655.11747625205
aF155726.03074784376
aF35576.08685314176
aF270362.532036124
aF34989.48149572642
aF41663.863032900976
asS'Bacteria.Verrucomicrobia.Verrucomicrobiae.Verrucomicrobiales.Verrucomicrobiaceae.Akkermansia'
p97
(lp98
F597.2176001199473
aF723.4792916423692
aF540318.130955015
aF115781.282859107
aF140355.75772465536
aF2269.3426066065945
aF484896.09990823927
aF219022.54872526947
aF14343.788011171775
aF51997.96538177351
aF33089.188011990205
aF500316.3642703622
aF2079.130243756578
aF1744.2595067241043
aF512745.8654400503
aF663149.719810563
asS'Bacteria.Firmicutes.Clostridia.Clostridiales.Ruminococcaceae'
p99
(lp100
F17234.006013177706
aF36219.77167994329
aF24558.43147420999
aF50175.98776098606
aF51417.45291597524
aF84354.5242063637
aF70163.53234106951
aF173195.03002844425
aF48838.564262191576
aF72062.39495894591
aF100359.79703016434
aF63073.4066117791
aF79757.44505043939
aF87668.71050455522
aF135567.40130068184
aF71495.99105546992
asS'Bacteria.Bacteroidetes.Bacteroidia.Bacteroidales.Bacteroidaceae'
p101
(lp102
F2175.5877077242258
aF7144.473621065883
aF49897.545638293705
aF86559.71378988754
aF11554.03474304644
aF4798.034093987907
aF344818.9702340238
aF178717.03110988752
aF25783.97590800543
aF6895.372826571014
aF132806.47436496496
aF21551.72330384999
aF5659.831999363461
aF44213.544610797944
aF54164.251638405534
aF64585.7147055237
asS'Bacteria.Firmicutes.Bacilli.Lactobacillales.Lactobacillaceae.Lactobacillus'
p103
(lp104
F76785.2658295891
aF30974.454322658126
aF32560.25347959337
aF32823.12298476166
aF23108.06948609288
aF115087.86133603266
aF964.0760560575235
aF47324.14482321329
aF114692.2045163558
aF133386.08269476105
aF36301.70943700302
aF50379.631319230684
aF66474.14515624302
aF21158.808527822664
aF4793.6815240658825
aF14258.74349236551
asS'Bacteria.Proteobacteria.Epsilonproteobacteria.Campylobacterales'
p105
(lp106
F42.6521951503846
aF33958.852647121894
aF9498.094266439928
aF149668.4896090307
aF8457.082382412842
aF146599.24510802576
aF30064.982743087057
aF11611.695607338783
aF19221.825864235456
aF9608.308218832828
aF17540.480761498682
aF5378.0377907173615
aF981.8034493229474
aF16153.493605394984
aF3584.0788592929766
aF471.9202231848107
asS'Bacteria.Firmicutes.Clostridia.Clostridiales.Lachnospiraceae'
p107
(lp108
F42274.55817407603
aF90029.3995549659
aF24298.22620499142
aF87460.09711642389
aF165766.699181433
aF79297.14123160107
aF27851.17780144926
aF156009.71360739652
aF124796.73406303296
aF176058.3257224929
aF146170.65170519898
aF76518.51076391259
aF109384.94953508813
aF82587.6000328114
aF57569.08360947866
aF93811.09060758426
asS'Bacteria.Bacteroidetes.Bacteroidia.Bacteroidales.Porphyromonadaceae.Parabacteroides'
p109
(lp110
F1749.0006052094573
aF2577.429661305186
aF748.1444908055258
aF14528.944619995287
aF16715.634957380174
aF6548.647019182816
aF4570.445272364004
aF6038.0747936298485
aF11730.542164365042
aF2317.2874089875636
aF5075.811977143074
aF909.5206701063145
aF5313.319957678556
aF29045.97026998452
aF10528.194485009968
aF1179.809140514371
asS'Bacteria.Bacteroidetes.Bacteroidia.Bacteroidales.Odoribacteraceae.Odoribacter'
p111
(lp112
F3370.0229079641203
aF2080.0260866913086
aF2472.100542566945
aF102029.951389028
aF913.2021583994431
aF2852.869608384148
aF1249.7288855802738
aF1341.7916516850776
aF9175.367171064587
aF2091.2187171546007
aF8995.117519718939
aF4824.414830593502
aF750.7857559251529
aF38601.55749465623
aF3046.448310672407
aF303.3760602541863
asS'Bacteria.Firmicutes.Erysipelotrichi.Erysipelotrichales'
p113
(lp114
F768236.5063352408
aF605697.4965392057
aF192466.57423209722
aF215805.836894431
aF179544.19785616937
aF408934.73971395206
aF9248.02606087135
aF61825.87794089085
aF250580.73007469688
aF289606.0753044811
aF147905.42733751732
aF39781.70884695682
aF491134.8591229922
aF376535.7063214104
aF20070.78435170041
aF6539.475758477914
asS'Bacteria.Firmicutes.Erysipelotrichi.Erysipelotrichales.Erysipelotrichaceae.Allobaculum'
p115
(lp116
F768236.5063352408
aF605697.4965392057
aF192466.57423209722
aF215805.836894431
aF179544.19785616937
aF408934.73971395206
aF9248.02606087135
aF61825.87794089085
aF250580.73007469688
aF289606.0753044811
aF147905.42733751732
aF39781.70884695682
aF491134.8591229922
aF376535.7063214104
aF20070.78435170041
aF6539.475758477914
asS'Bacteria.Proteobacteria.Epsilonproteobacteria.Campylobacterales.Helicobacteraceae.Flexispira'
p117
(lp118
F42.6521951503846
aF33958.852647121894
aF0.0
aF0.0
aF8457.082382412842
aF146599.24510802576
aF0.0
aF0.0
aF19221.825864235456
aF9608.308218832828
aF0.0
aF0.0
aF924.0417767676057
aF16153.493605394984
aF0.0
aF0.0
asS'Bacteria.Firmicutes.Clostridia.Clostridiales.Lachnospiraceae.Roseburia'
p119
(lp120
F15613.00542742668
aF22111.694260722117
aF65.0596775818948
aF4051.7249694135944
aF0.0
aF2204.5133663784773
aF107.11756748927263
aF206.42948487462732
aF348.42512103766586
aF0.0
aF32061.164536299886
aF6208.472230903152
aF231.01769339779443
aF1365.0893856528337
aF223.998046453376
aF775.2962834389971
asS'Bacteria.Firmicutes.Bacilli'
p121
(lp122
F80752.50633767317
aF39023.30018149647
aF33113.21893765321
aF33355.17517204106
aF24060.985373948068
aF133177.74102879505
aF1071.193623546796
aF55116.894960371465
aF120092.90877048811
aF137794.61659346975
aF62387.55344028144
aF76202.14649355032
aF77562.79146157214
aF28439.25960137236
aF5600.105323788945
aF18236.361706381682
asS'Bacteria.Bacteroidetes.Bacteroidia.Bacteroidales.Porphyromonadaceae'
p123
(lp124
F1749.0006052094573
aF2577.429661305186
aF748.1444908055258
aF14528.944619995287
aF16715.634957380174
aF6548.647019182816
aF4570.445272364004
aF6038.0747936298485
aF11730.542164365042
aF2317.2874089875636
aF5075.811977143074
aF909.5206701063145
aF5313.319957678556
aF29045.97026998452
aF10528.194485009968
aF1179.809140514371
asS'Bacteria.Firmicutes.Erysipelotrichi'
p125
(lp126
F768236.5063352408
aF605697.4965392057
aF192466.57423209722
aF215805.836894431
aF179544.19785616937
aF408934.73971395206
aF9248.02606087135
aF61825.87794089085
aF250580.73007469688
aF289606.0753044811
aF147905.42733751732
aF39781.70884695682
aF491134.8591229922
aF376535.7063214104
aF20070.78435170041
aF6539.475758477914
asS'Bacteria.Firmicutes.Erysipelotrichi.Erysipelotrichales.Erysipelotrichaceae'
p127
(lp128
F768236.5063352408
aF605697.4965392057
aF192466.57423209722
aF215805.836894431
aF179544.19785616937
aF408934.73971395206
aF9248.02606087135
aF61825.87794089085
aF250580.73007469688
aF289606.0753044811
aF147905.42733751732
aF39781.70884695682
aF491134.8591229922
aF376535.7063214104
aF20070.78435170041
aF6539.475758477914
asS'Bacteria.Proteobacteria.Betaproteobacteria.Burkholderiales.Alcaligenaceae'
p129
(lp130
F11517.786616887819
aF10400.176679895538
aF7253.6775145778565
aF25333.54453843154
aF14571.579064685156
aF36244.556705890645
aF5641.656844564871
aF10992.4071527149
aF8304.304368470423
aF3673.7828776850347
aF1092.2649551287648
aF9095.226051743331
aF4504.772529198061
aF23130.60858208766
aF2464.044580610512
aF1146.0968749073083
asS'Bacteria'
p131
(lp132
F1000000.0
aF1000000.0
aF1000000.0
aF1000000.0
aF1000000.0
aF1000000.0
aF1000000.0
aF1000000.0
aF1000000.0
aF1000000.0
aF1000000.0
aF1000000.0
aF1000000.0
aF1000000.0
aF1000000.0
aF1000000.0
asS'Bacteria.Firmicutes.Bacilli.Lactobacillales.Lactobacillaceae'
p133
(lp134
F76785.2658295891
aF30974.454322658126
aF32560.25347959337
aF32823.12298476166
aF23108.06948609288
aF115087.86133603266
aF964.0760560575235
aF47324.14482321329
aF114692.2045163558
aF133386.08269476105
aF36301.70943700302
aF50379.631319230684
aF66474.14515624302
aF21158.808527822664
aF4793.6815240658825
aF14258.74349236551
asS'Bacteria.Proteobacteria.Deltaproteobacteria.Desulfovibrionales.Desulfovibrionaceae'
p135
(lp136
F55285.388791263715
aF18494.228432851778
aF103405.66093434223
aF96750.42160642994
aF21083.135361848486
aF53232.1797154638
aF4284.792442841254
aF68896.12488098785
aF25493.62164047404
aF90092.12299192193
aF143022.3717596246
aF141252.7669053831
aF30089.510874620748
aF231078.4298486413
aF28941.35805582293
aF40045.84593480885
assS'subclass_sl'
p137
(dp138
g16
(I8
I12
tp139
sg14
(I0
I4
tp140
sg20
(I12
I16
tp141
sg18
(I4
I8
tp142
ssS'norm'
p143
F1000000.0
sS'cls'
p144
(dp145
S'class'
p146
(g3
g3
g3
g3
g7
g7
g7
g7
g5
g5
g5
g5
g9
g9
g9
g9
tp147
sS'subclass'
p148
(lp149
S'A_subcl'
p150
aS'A_subcl'
p151
aS'A_subcl'
p152
ag14
aS'B_subcl'
p153
aS'B_subcl'
p154
aS'B_subcl'
p155
ag18
aS'C_subcl'
p156
aS'C_subcl'
p157
aS'C_subcl'
p158
ag16
aS'D_subcl'
p159
aS'D_subcl'
p160
aS'D_subcl'
p161
ag20
asS'subject'
p162
(S'611A'
p163
S'612A'
p164
S'711A'
p165
S'712A'
p166
S'621A'
p167
S'622A'
p168
S'721A'
p169
S'722A'
p170
S'631A'
p171
S'632A'
p172
S'731A'
p173
S'732A'
p174
S'641A'
p175
S'642A'
p176
S'741A'
p177
S'742A'
p178
tp179
ss.